target datalayout = "e-m:e-p270:32:32-p271:32:32-p272:64:64-i64:64-i128:128-f80:128-n8:16:32:64-S128"
target triple = "x86_64-pc-linux-gnu"

@.str.12 = private unnamed_addr constant [15 x i8] c"value expected\00", align 1

; Function Attrs: nounwind uwtable
define dso_local void @luaL_checkany(ptr noundef %0, i32 noundef %1) #0 {
  %3 = alloca ptr, align 8
  %4 = alloca i32, align 4
  store ptr %0, ptr %3, align 8, !tbaa !4
  store i32 %1, ptr %4, align 4, !tbaa !9
  %5 = load ptr, ptr %3, align 8, !tbaa !4
  %6 = load i32, ptr %4, align 4, !tbaa !9
  %7 = call i32 @lua_type(ptr noundef %5, i32 noundef %6)
  %8 = icmp eq i32 %7, -1
  br i1 %8, label %9, label %13

9:                                                ; preds = %2
  %10 = load ptr, ptr %3, align 8, !tbaa !4
  %11 = load i32, ptr %4, align 4, !tbaa !9
  %12 = call i32 @luaL_argerror(ptr noundef %10, i32 noundef %11, ptr noundef @.str.12)
  br label %13

13:                                               ; preds = %9, %2
  ret void
}