; Function Attrs: nounwind uwtable
define dso_local void @luaL_checkany(ptr noundef %0, i32 noundef %1) local_unnamed_addr #0 {
  %3 = tail call i32 @lua_type(ptr noundef %0, i32 noundef %1) #17
  %4 = icmp eq i32 %3, -1
  br i1 %4, label %5, label %7

5:                                                ; preds = %2
  %6 = tail call i32 @luaL_argerror(ptr noundef %0, i32 noundef %1, ptr noundef nonnull @.str.12)
  br label %7

7:                                                ; preds = %5, %2
  ret void
}